target datalayout = "e-m:e-p270:32:32-p271:32:32-p272:64:64-i64:64-i128:128-f80:128-n8:16:32:64-S128"
target triple = "x86_64-pc-linux-gnu"

%struct.FxuMatrix = type { %struct.FxuListCube, %struct.FxuListVar, ptr, ptr, i32, i32, i32, ptr, %struct.FxuListSingle, ptr, i32, i32, ptr, ptr, ptr, ptr, ptr, ptr, ptr, i32, i32, i32, i32, ptr }
%struct.FxuListCube = type { ptr, ptr, i32 }
%struct.FxuListVar = type { ptr, ptr, i32 }
%struct.FxuListSingle = type { ptr, ptr, i32 }
%struct.FxuDouble = type { i32, i32, i32, i32, %struct.FxuListPair, ptr, ptr, ptr }
%struct.FxuListPair = type { ptr, ptr, i32 }
%struct.FxuListDouble = type { ptr, ptr, i32 }

; Function Attrs: nounwind uwtable
define void @Fxu_ListTableDelDivisor(ptr noundef %0, ptr noundef %1) #0 {
  %3 = alloca ptr, align 8
  %4 = alloca ptr, align 8
  %5 = alloca ptr, align 8
  store ptr %0, ptr %3, align 8, !tbaa !3
  store ptr %1, ptr %4, align 8, !tbaa !45
  call void @llvm.lifetime.start.p0(i64 8, ptr %5) #3
  %6 = load ptr, ptr %3, align 8, !tbaa !3
  %7 = getelementptr inbounds nuw %struct.FxuMatrix, ptr %6, i32 0, i32 3
  %8 = load ptr, ptr %7, align 8, !tbaa !47
  %9 = load ptr, ptr %4, align 8, !tbaa !45
  %10 = getelementptr inbounds nuw %struct.FxuDouble, ptr %9, i32 0, i32 3
  %11 = load i32, ptr %10, align 4, !tbaa !57
  %12 = zext i32 %11 to i64
  %13 = getelementptr inbounds nuw %struct.FxuListDouble, ptr %8, i64 %12
  store ptr %13, ptr %5, align 8, !tbaa !61
  %14 = load ptr, ptr %5, align 8, !tbaa !61
  %15 = getelementptr inbounds nuw %struct.FxuListDouble, ptr %14, i32 0, i32 0
  %16 = load ptr, ptr %15, align 8, !tbaa !62
  %17 = load ptr, ptr %4, align 8, !tbaa !45
  %18 = icmp eq ptr %16, %17
  br i1 %18, label %19, label %25

19:                                               ; preds = %2
  %20 = load ptr, ptr %4, align 8, !tbaa !45
  %21 = getelementptr inbounds nuw %struct.FxuDouble, ptr %20, i32 0, i32 6
  %22 = load ptr, ptr %21, align 8, !tbaa !66
  %23 = load ptr, ptr %5, align 8, !tbaa !61
  %24 = getelementptr inbounds nuw %struct.FxuListDouble, ptr %23, i32 0, i32 0
  store ptr %22, ptr %24, align 8, !tbaa !62
  br label %25

25:                                               ; preds = %19, %2
  %26 = load ptr, ptr %5, align 8, !tbaa !61
  %27 = getelementptr inbounds nuw %struct.FxuListDouble, ptr %26, i32 0, i32 1
  %28 = load ptr, ptr %27, align 8, !tbaa !64
  %29 = load ptr, ptr %4, align 8, !tbaa !45
  %30 = icmp eq ptr %28, %29
  br i1 %30, label %31, label %37

31:                                               ; preds = %25
  %32 = load ptr, ptr %4, align 8, !tbaa !45
  %33 = getelementptr inbounds nuw %struct.FxuDouble, ptr %32, i32 0, i32 5
  %34 = load ptr, ptr %33, align 8, !tbaa !65
  %35 = load ptr, ptr %5, align 8, !tbaa !61
  %36 = getelementptr inbounds nuw %struct.FxuListDouble, ptr %35, i32 0, i32 1
  store ptr %34, ptr %36, align 8, !tbaa !64
  br label %37

37:                                               ; preds = %31, %25
  %38 = load ptr, ptr %4, align 8, !tbaa !45
  %39 = getelementptr inbounds nuw %struct.FxuDouble, ptr %38, i32 0, i32 5
  %40 = load ptr, ptr %39, align 8, !tbaa !65
  %41 = icmp ne ptr %40, null
  br i1 %41, label %42, label %50

42:                                               ; preds = %37
  %43 = load ptr, ptr %4, align 8, !tbaa !45
  %44 = getelementptr inbounds nuw %struct.FxuDouble, ptr %43, i32 0, i32 6
  %45 = load ptr, ptr %44, align 8, !tbaa !66
  %46 = load ptr, ptr %4, align 8, !tbaa !45
  %47 = getelementptr inbounds nuw %struct.FxuDouble, ptr %46, i32 0, i32 5
  %48 = load ptr, ptr %47, align 8, !tbaa !65
  %49 = getelementptr inbounds nuw %struct.FxuDouble, ptr %48, i32 0, i32 6
  store ptr %45, ptr %49, align 8, !tbaa !66
  br label %50

50:                                               ; preds = %42, %37
  %51 = load ptr, ptr %4, align 8, !tbaa !45
  %52 = getelementptr inbounds nuw %struct.FxuDouble, ptr %51, i32 0, i32 6
  %53 = load ptr, ptr %52, align 8, !tbaa !66
  %54 = icmp ne ptr %53, null
  br i1 %54, label %55, label %63

55:                                               ; preds = %50
  %56 = load ptr, ptr %4, align 8, !tbaa !45
  %57 = getelementptr inbounds nuw %struct.FxuDouble, ptr %56, i32 0, i32 5
  %58 = load ptr, ptr %57, align 8, !tbaa !65
  %59 = load ptr, ptr %4, align 8, !tbaa !45
  %60 = getelementptr inbounds nuw %struct.FxuDouble, ptr %59, i32 0, i32 6
  %61 = load ptr, ptr %60, align 8, !tbaa !66
  %62 = getelementptr inbounds nuw %struct.FxuDouble, ptr %61, i32 0, i32 5
  store ptr %58, ptr %62, align 8, !tbaa !65
  br label %63

63:                                               ; preds = %55, %50
  %64 = load ptr, ptr %5, align 8, !tbaa !61
  %65 = getelementptr inbounds nuw %struct.FxuListDouble, ptr %64, i32 0, i32 2
  %66 = load i32, ptr %65, align 8, !tbaa !67
  %67 = add nsw i32 %66, -1
  store i32 %67, ptr %65, align 8, !tbaa !67
  %68 = load ptr, ptr %3, align 8, !tbaa !3
  %69 = getelementptr inbounds nuw %struct.FxuMatrix, ptr %68, i32 0, i32 5
  %70 = load i32, ptr %69, align 4, !tbaa !68
  %71 = add nsw i32 %70, -1
  store i32 %71, ptr %69, align 4, !tbaa !68
  call void @llvm.lifetime.end.p0(i64 8, ptr %5) #3
  ret void
}