; Function Attrs: mustprogress nofree norecurse nosync nounwind willreturn memory(readwrite, inaccessiblemem: none) uwtable
define void @Fxu_ListTableDelDivisor(ptr noundef captures(none) %0, ptr noundef readonly %1) local_unnamed_addr #1 {
  %3 = getelementptr inbounds nuw i8, ptr %0, i64 56
  %4 = load ptr, ptr %3, align 8, !tbaa !34
  %5 = getelementptr inbounds nuw i8, ptr %1, i64 12
  %6 = load i32, ptr %5, align 4, !tbaa !44
  %7 = zext i32 %6 to i64
  %8 = getelementptr inbounds nuw %struct.FxuListDouble, ptr %4, i64 %7
  %9 = load ptr, ptr %8, align 8, !tbaa !49
  %10 = icmp eq ptr %9, %1
  br i1 %10, label %11, label %14

11:                                               ; preds = %2
  %12 = getelementptr inbounds nuw i8, ptr %1, i64 48
  %13 = load ptr, ptr %12, align 8, !tbaa !52
  store ptr %13, ptr %8, align 8, !tbaa !49
  br label %14

14:                                               ; preds = %11, %2
  %15 = getelementptr inbounds nuw i8, ptr %8, i64 8
  %16 = load ptr, ptr %15, align 8, !tbaa !51
  %17 = icmp eq ptr %16, %1
  %18 = getelementptr inbounds nuw i8, ptr %1, i64 40
  %19 = load ptr, ptr %18, align 8, !tbaa !53
  br i1 %17, label %20, label %._crit_edge

20:                                               ; preds = %14
  store ptr %19, ptr %15, align 8, !tbaa !51
  br label %._crit_edge

._crit_edge:                                      ; preds = %14, %20
  %.not = icmp eq ptr %19, null
  %.phi.trans.insert22 = getelementptr inbounds nuw i8, ptr %1, i64 48
  %.pre23 = load ptr, ptr %.phi.trans.insert22, align 8, !tbaa !52
  br i1 %.not, label %._crit_edge21, label %21

21:                                               ; preds = %._crit_edge
  %22 = getelementptr inbounds nuw i8, ptr %19, i64 48
  store ptr %.pre23, ptr %22, align 8, !tbaa !52
  br label %._crit_edge21

._crit_edge21:                                    ; preds = %._crit_edge, %21
  %.not20 = icmp eq ptr %.pre23, null
  br i1 %.not20, label %25, label %23

23:                                               ; preds = %._crit_edge21
  %24 = getelementptr inbounds nuw i8, ptr %.pre23, i64 40
  store ptr %19, ptr %24, align 8, !tbaa !53
  br label %25

25:                                               ; preds = %23, %._crit_edge21
  %26 = getelementptr inbounds nuw i8, ptr %8, i64 16
  %27 = load i32, ptr %26, align 8, !tbaa !54
  %28 = add nsw i32 %27, -1
  store i32 %28, ptr %26, align 8, !tbaa !54
  %29 = getelementptr inbounds nuw i8, ptr %0, i64 68
  %30 = load i32, ptr %29, align 4, !tbaa !55
  %31 = add nsw i32 %30, -1
  store i32 %31, ptr %29, align 4, !tbaa !55
  ret void
}